target datalayout = "e-m:e-p270:32:32-p271:32:32-p272:64:64-i64:64-i128:128-f80:128-n8:16:32:64-S128"
target triple = "x86_64-unknown-linux-gnu"

%"class.absl::debian2::string_view" = type { ptr, i64 }
%"class.re2::Regexp::ParseState" = type { i32, %"class.absl::debian2::string_view", ptr, ptr, i32, i32 }

; Function Attrs: mustprogress uwtable
define noundef zeroext i1 @_ZN3re26Regexp10ParseState12PushSimpleOpENS_8RegexpOpE(ptr noundef nonnull align 8 dereferenceable(48) %this, i32 noundef %op) #1 align 2 personality ptr @__gxx_personality_v0 {
entry:
  %this.addr = alloca ptr, align 8
  %op.addr = alloca i32, align 4
  %re = alloca ptr, align 8
  %exn.slot = alloca ptr, align 8
  %ehselector.slot = alloca i32, align 4
  store ptr %this, ptr %this.addr, align 8
  store i32 %op, ptr %op.addr, align 4
  %this1 = load ptr, ptr %this.addr, align 8
  %call = call noalias noundef nonnull ptr @_Znwm(i64 noundef 40) #15
  %0 = load i32, ptr %op.addr, align 4
  %flags_ = getelementptr inbounds %"class.re2::Regexp::ParseState", ptr %this1, i32 0, i32 0
  %1 = load i32, ptr %flags_, align 8
  invoke void @_ZN3re26RegexpC1ENS_8RegexpOpENS0_10ParseFlagsE(ptr noundef nonnull align 8 dereferenceable(40) %call, i32 noundef %0, i32 noundef %1)
          to label %invoke.cont unwind label %lpad

invoke.cont:                                      ; preds = %entry
  store ptr %call, ptr %re, align 8
  %2 = load ptr, ptr %re, align 8
  %call2 = call noundef zeroext i1 @_ZN3re26Regexp10ParseState10PushRegexpEPS0_(ptr noundef nonnull align 8 dereferenceable(48) %this1, ptr noundef %2)
  ret i1 %call2

lpad:                                             ; preds = %entry
  %3 = landingpad { ptr, i32 }
          cleanup
  %4 = extractvalue { ptr, i32 } %3, 0
  store ptr %4, ptr %exn.slot, align 8
  %5 = extractvalue { ptr, i32 } %3, 1
  store i32 %5, ptr %ehselector.slot, align 4
  call void @_ZdlPv(ptr noundef %call) #13
  br label %eh.resume

eh.resume:                                        ; preds = %lpad
  %exn = load ptr, ptr %exn.slot, align 8
  %sel = load i32, ptr %ehselector.slot, align 4
  %lpad.val = insertvalue { ptr, i32 } poison, ptr %exn, 0
  %lpad.val3 = insertvalue { ptr, i32 } %lpad.val, i32 %sel, 1
  resume { ptr, i32 } %lpad.val3
}

; Function Attrs: mustprogress uwtable
define noundef zeroext i1 @_ZN3re26Regexp10ParseState16PushWordBoundaryEb(ptr noundef nonnull align 8 dereferenceable(48) %this, i1 noundef zeroext %word) #1 align 2 {
entry:
  %retval = alloca i1, align 1
  %this.addr = alloca ptr, align 8
  %word.addr = alloca i8, align 1
  store ptr %this, ptr %this.addr, align 8
  %frombool = zext i1 %word to i8
  store i8 %frombool, ptr %word.addr, align 1
  %this1 = load ptr, ptr %this.addr, align 8
  %0 = load i8, ptr %word.addr, align 1
  %tobool = trunc i8 %0 to i1
  br i1 %tobool, label %if.then, label %if.end

if.then:                                          ; preds = %entry
  %call = call noundef zeroext i1 @_ZN3re26Regexp10ParseState12PushSimpleOpENS_8RegexpOpE(ptr noundef nonnull align 8 dereferenceable(48) %this1, i32 noundef 16)
  store i1 %call, ptr %retval, align 1
  br label %return

if.end:                                           ; preds = %entry
  %call2 = call noundef zeroext i1 @_ZN3re26Regexp10ParseState12PushSimpleOpENS_8RegexpOpE(ptr noundef nonnull align 8 dereferenceable(48) %this1, i32 noundef 17)
  store i1 %call2, ptr %retval, align 1
  br label %return

return:                                           ; preds = %if.end, %if.then
  %1 = load i1, ptr %retval, align 1
  ret i1 %1
}