; Function Attrs: mustprogress uwtable
define noundef zeroext i1 @_ZN3re26Regexp10ParseState16PushWordBoundaryEb(ptr nocapture noundef nonnull align 8 dereferenceable(48) %this, i1 noundef zeroext %word) local_unnamed_addr #8 align 2 personality ptr @__gxx_personality_v0 {
entry:
  %call.i = tail call noalias noundef nonnull dereferenceable(40) ptr @_Znwm(i64 noundef 40) #28
  %0 = load i32, ptr %this, align 8
  br i1 %word, label %if.then, label %if.end

if.then:                                          ; preds = %entry
  invoke void @_ZN3re26RegexpC1ENS_8RegexpOpENS0_10ParseFlagsE(ptr noundef nonnull align 8 dereferenceable(40) %call.i, i32 noundef 16, i32 noundef %0)
          to label %return unwind label %lpad.i

common.resume:                                    ; preds = %lpad.i2, %lpad.i
  %common.resume.op = phi { ptr, i32 } [ %1, %lpad.i ], [ %2, %lpad.i2 ]
  tail call void @_ZdlPv(ptr noundef nonnull %call.i) #26
  resume { ptr, i32 } %common.resume.op

lpad.i:                                           ; preds = %if.then
  %1 = landingpad { ptr, i32 }
          cleanup
  br label %common.resume

if.end:                                           ; preds = %entry
  invoke void @_ZN3re26RegexpC1ENS_8RegexpOpENS0_10ParseFlagsE(ptr noundef nonnull align 8 dereferenceable(40) %call.i, i32 noundef 17, i32 noundef %0)
          to label %return unwind label %lpad.i2

lpad.i2:                                          ; preds = %if.end
  %2 = landingpad { ptr, i32 }
          cleanup
  br label %common.resume

return:                                           ; preds = %if.end, %if.then
  %call2.i3 = tail call noundef zeroext i1 @_ZN3re26Regexp10ParseState10PushRegexpEPS0_(ptr noundef nonnull align 8 dereferenceable(48) %this, ptr noundef nonnull %call.i)
  ret i1 true
}